target datalayout = "e-m:e-p270:32:32-p271:32:32-p272:64:64-i64:64-i128:128-f80:128-n8:16:32:64-S128"
target triple = "x86_64-pc-linux-gnu"

%"class.cv::UMat" = type { i32, i32, i32, i32, ptr, i32, ptr, i64, %"struct.cv::MatSize", %"struct.cv::MatStep" }
%"struct.cv::MatSize" = type { ptr }
%"struct.cv::MatStep" = type { ptr, [2 x i64] }

; Function Attrs: inlinehint mustprogress nounwind uwtable
define linkonce_odr hidden noundef nonnull align 4 dereferenceable(4) ptr @_ZNK2cv7MatSizeixEi(ptr noundef nonnull align 8 dereferenceable(8) %0, i32 noundef %1) #5 comdat align 2 {
  %3 = alloca ptr, align 8
  %4 = alloca i32, align 4
  store ptr %0, ptr %3, align 8, !tbaa !82
  store i32 %1, ptr %4, align 4, !tbaa !37
  %5 = load ptr, ptr %3, align 8
  %6 = getelementptr inbounds nuw %"struct.cv::MatSize", ptr %5, i32 0, i32 0
  %7 = load ptr, ptr %6, align 8, !tbaa !85
  %8 = load i32, ptr %4, align 4, !tbaa !37
  %9 = sext i32 %8 to i64
  %10 = getelementptr inbounds i32, ptr %7, i64 %9
  ret ptr %10
}

; Function Attrs: mustprogress uwtable
define noundef i64 @_ZNK2cv4UMat5totalEv(ptr noundef nonnull align 8 dereferenceable(80) %0) #3 align 2 {
  %2 = alloca i64, align 8
  %3 = alloca ptr, align 8
  %4 = alloca i64, align 8
  %5 = alloca i32, align 4
  store ptr %0, ptr %3, align 8, !tbaa !65
  %6 = load ptr, ptr %3, align 8
  %7 = getelementptr inbounds nuw %"class.cv::UMat", ptr %6, i32 0, i32 1
  %8 = load i32, ptr %7, align 4, !tbaa !75
  %9 = icmp sle i32 %8, 2
  br i1 %9, label %10, label %18

10:                                               ; preds = %1
  %11 = getelementptr inbounds nuw %"class.cv::UMat", ptr %6, i32 0, i32 2
  %12 = load i32, ptr %11, align 8, !tbaa !76
  %13 = sext i32 %12 to i64
  %14 = getelementptr inbounds nuw %"class.cv::UMat", ptr %6, i32 0, i32 3
  %15 = load i32, ptr %14, align 4, !tbaa !77
  %16 = sext i32 %15 to i64
  %17 = mul i64 %13, %16
  store i64 %17, ptr %2, align 8
  br label %38

18:                                               ; preds = %1
  call void @llvm.lifetime.start.p0(i64 8, ptr %4) #16
  store i64 1, ptr %4, align 8, !tbaa !50
  call void @llvm.lifetime.start.p0(i64 4, ptr %5) #16
  store i32 0, ptr %5, align 4, !tbaa !37
  br label %19

19:                                               ; preds = %33, %18
  %20 = load i32, ptr %5, align 4, !tbaa !37
  %21 = getelementptr inbounds nuw %"class.cv::UMat", ptr %6, i32 0, i32 1
  %22 = load i32, ptr %21, align 4, !tbaa !75
  %23 = icmp slt i32 %20, %22
  br i1 %23, label %25, label %24

24:                                               ; preds = %19
  call void @llvm.lifetime.end.p0(i64 4, ptr %5) #16
  br label %36

25:                                               ; preds = %19
  %26 = getelementptr inbounds nuw %"class.cv::UMat", ptr %6, i32 0, i32 8
  %27 = load i32, ptr %5, align 4, !tbaa !37
  %28 = call noundef nonnull align 4 dereferenceable(4) ptr @_ZNK2cv7MatSizeixEi(ptr noundef nonnull align 8 dereferenceable(8) %26, i32 noundef %27)
  %29 = load i32, ptr %28, align 4, !tbaa !37
  %30 = sext i32 %29 to i64
  %31 = load i64, ptr %4, align 8, !tbaa !50
  %32 = mul i64 %31, %30
  store i64 %32, ptr %4, align 8, !tbaa !50
  br label %33

33:                                               ; preds = %25
  %34 = load i32, ptr %5, align 4, !tbaa !37
  %35 = add nsw i32 %34, 1
  store i32 %35, ptr %5, align 4, !tbaa !37
  br label %19, !llvm.loop !106

36:                                               ; preds = %24
  %37 = load i64, ptr %4, align 8, !tbaa !50
  store i64 %37, ptr %2, align 8
  call void @llvm.lifetime.end.p0(i64 8, ptr %4) #16
  br label %38

38:                                               ; preds = %36, %10
  %39 = load i64, ptr %2, align 8
  ret i64 %39
}

; Function Attrs: inlinehint mustprogress nounwind uwtable
define linkonce_odr hidden noundef i32 @_ZNK2cv4UMat8channelsEv(ptr noundef nonnull align 8 dereferenceable(80) %0) #5 comdat align 2 {
  %2 = alloca ptr, align 8
  store ptr %0, ptr %2, align 8, !tbaa !65
  %3 = load ptr, ptr %2, align 8
  %4 = getelementptr inbounds nuw %"class.cv::UMat", ptr %3, i32 0, i32 0
  %5 = load i32, ptr %4, align 8, !tbaa !69
  %6 = and i32 %5, 4088
  %7 = ashr i32 %6, 3
  %8 = add nsw i32 %7, 1
  ret i32 %8
}

; Function Attrs: inlinehint mustprogress nounwind uwtable
define linkonce_odr hidden noundef zeroext i1 @_ZNK2cv4UMat12isContinuousEv(ptr noundef nonnull align 8 dereferenceable(80) %0) #5 comdat align 2 {
  %2 = alloca ptr, align 8
  store ptr %0, ptr %2, align 8, !tbaa !65
  %3 = load ptr, ptr %2, align 8
  %4 = getelementptr inbounds nuw %"class.cv::UMat", ptr %3, i32 0, i32 0
  %5 = load i32, ptr %4, align 8, !tbaa !69
  %6 = and i32 %5, 16384
  %7 = icmp ne i32 %6, 0
  ret i1 %7
}

; Function Attrs: inlinehint mustprogress nounwind uwtable
define linkonce_odr hidden noundef i32 @_ZNK2cv4UMat5depthEv(ptr noundef nonnull align 8 dereferenceable(80) %0) #5 comdat align 2 {
  %2 = alloca ptr, align 8
  store ptr %0, ptr %2, align 8, !tbaa !65
  %3 = load ptr, ptr %2, align 8
  %4 = getelementptr inbounds nuw %"class.cv::UMat", ptr %3, i32 0, i32 0
  %5 = load i32, ptr %4, align 8, !tbaa !69
  %6 = and i32 %5, 7
  ret i32 %6
}

; Function Attrs: mustprogress uwtable
define noundef i32 @_ZNK2cv4UMat11checkVectorEiib(ptr noundef nonnull align 8 dereferenceable(80) %0, i32 noundef %1, i32 noundef %2, i1 noundef zeroext %3) #3 align 2 {
  %5 = alloca ptr, align 8
  %6 = alloca i32, align 4
  %7 = alloca i32, align 4
  %8 = alloca i8, align 1
  store ptr %0, ptr %5, align 8, !tbaa !65
  store i32 %1, ptr %6, align 4, !tbaa !37
  store i32 %2, ptr %7, align 4, !tbaa !37
  %9 = zext i1 %3 to i8
  store i8 %9, ptr %8, align 1, !tbaa !35
  %10 = load ptr, ptr %5, align 8
  %11 = call noundef i32 @_ZNK2cv4UMat5depthEv(ptr noundef nonnull align 8 dereferenceable(80) %10)
  %12 = load i32, ptr %7, align 4, !tbaa !37
  %13 = icmp eq i32 %11, %12
  br i1 %13, label %17, label %14

14:                                               ; preds = %4
  %15 = load i32, ptr %7, align 4, !tbaa !37
  %16 = icmp sle i32 %15, 0
  br i1 %16, label %17, label %105

17:                                               ; preds = %14, %4
  %18 = call noundef zeroext i1 @_ZNK2cv4UMat12isContinuousEv(ptr noundef nonnull align 8 dereferenceable(80) %10)
  br i1 %18, label %22, label %19

19:                                               ; preds = %17
  %20 = load i8, ptr %8, align 1, !tbaa !35, !range !38, !noundef !39
  %21 = trunc i8 %20 to i1
  br i1 %21, label %105, label %22

22:                                               ; preds = %19, %17
  %23 = getelementptr inbounds nuw %"class.cv::UMat", ptr %10, i32 0, i32 1
  %24 = load i32, ptr %23, align 4, !tbaa !75
  %25 = icmp eq i32 %24, 2
  br i1 %25, label %26, label %46

26:                                               ; preds = %22
  %27 = getelementptr inbounds nuw %"class.cv::UMat", ptr %10, i32 0, i32 2
  %28 = load i32, ptr %27, align 8, !tbaa !76
  %29 = icmp eq i32 %28, 1
  br i1 %29, label %34, label %30

30:                                               ; preds = %26
  %31 = getelementptr inbounds nuw %"class.cv::UMat", ptr %10, i32 0, i32 3
  %32 = load i32, ptr %31, align 4, !tbaa !77
  %33 = icmp eq i32 %32, 1
  br i1 %33, label %34, label %38

34:                                               ; preds = %30, %26
  %35 = call noundef i32 @_ZNK2cv4UMat8channelsEv(ptr noundef nonnull align 8 dereferenceable(80) %10)
  %36 = load i32, ptr %6, align 4, !tbaa !37
  %37 = icmp eq i32 %35, %36
  br i1 %37, label %96, label %38

38:                                               ; preds = %34, %30
  %39 = getelementptr inbounds nuw %"class.cv::UMat", ptr %10, i32 0, i32 3
  %40 = load i32, ptr %39, align 4, !tbaa !77
  %41 = load i32, ptr %6, align 4, !tbaa !37
  %42 = icmp eq i32 %40, %41
  br i1 %42, label %43, label %46

43:                                               ; preds = %38
  %44 = call noundef i32 @_ZNK2cv4UMat8channelsEv(ptr noundef nonnull align 8 dereferenceable(80) %10)
  %45 = icmp eq i32 %44, 1
  br i1 %45, label %96, label %46

46:                                               ; preds = %43, %38, %22
  %47 = getelementptr inbounds nuw %"class.cv::UMat", ptr %10, i32 0, i32 1
  %48 = load i32, ptr %47, align 4, !tbaa !75
  %49 = icmp eq i32 %48, 3
  br i1 %49, label %50, label %105

50:                                               ; preds = %46
  %51 = call noundef i32 @_ZNK2cv4UMat8channelsEv(ptr noundef nonnull align 8 dereferenceable(80) %10)
  %52 = icmp eq i32 %51, 1
  br i1 %52, label %53, label %105

53:                                               ; preds = %50
  %54 = getelementptr inbounds nuw %"class.cv::UMat", ptr %10, i32 0, i32 8
  %55 = getelementptr inbounds nuw %"struct.cv::MatSize", ptr %54, i32 0, i32 0
  %56 = load ptr, ptr %55, align 8, !tbaa !96
  %57 = getelementptr inbounds i32, ptr %56, i64 2
  %58 = load i32, ptr %57, align 4, !tbaa !37
  %59 = load i32, ptr %6, align 4, !tbaa !37
  %60 = icmp eq i32 %58, %59
  br i1 %60, label %61, label %105

61:                                               ; preds = %53
  %62 = getelementptr inbounds nuw %"class.cv::UMat", ptr %10, i32 0, i32 8
  %63 = getelementptr inbounds nuw %"struct.cv::MatSize", ptr %62, i32 0, i32 0
  %64 = load ptr, ptr %63, align 8, !tbaa !96
  %65 = getelementptr inbounds i32, ptr %64, i64 0
  %66 = load i32, ptr %65, align 4, !tbaa !37
  %67 = icmp eq i32 %66, 1
  br i1 %67, label %75, label %68

68:                                               ; preds = %61
  %69 = getelementptr inbounds nuw %"class.cv::UMat", ptr %10, i32 0, i32 8
  %70 = getelementptr inbounds nuw %"struct.cv::MatSize", ptr %69, i32 0, i32 0
  %71 = load ptr, ptr %70, align 8, !tbaa !96
  %72 = getelementptr inbounds i32, ptr %71, i64 1
  %73 = load i32, ptr %72, align 4, !tbaa !37
  %74 = icmp eq i32 %73, 1
  br i1 %74, label %75, label %105

75:                                               ; preds = %68, %61
  %76 = call noundef zeroext i1 @_ZNK2cv4UMat12isContinuousEv(ptr noundef nonnull align 8 dereferenceable(80) %10)
  br i1 %76, label %96, label %77

77:                                               ; preds = %75
  %78 = getelementptr inbounds nuw %"class.cv::UMat", ptr %10, i32 0, i32 9
  %79 = getelementptr inbounds nuw %"struct.cv::MatStep", ptr %78, i32 0, i32 0
  %80 = load ptr, ptr %79, align 8, !tbaa !98
  %81 = getelementptr inbounds i64, ptr %80, i64 1
  %82 = load i64, ptr %81, align 8, !tbaa !50
  %83 = getelementptr inbounds nuw %"class.cv::UMat", ptr %10, i32 0, i32 9
  %84 = getelementptr inbounds nuw %"struct.cv::MatStep", ptr %83, i32 0, i32 0
  %85 = load ptr, ptr %84, align 8, !tbaa !98
  %86 = getelementptr inbounds i64, ptr %85, i64 2
  %87 = load i64, ptr %86, align 8, !tbaa !50
  %88 = getelementptr inbounds nuw %"class.cv::UMat", ptr %10, i32 0, i32 8
  %89 = getelementptr inbounds nuw %"struct.cv::MatSize", ptr %88, i32 0, i32 0
  %90 = load ptr, ptr %89, align 8, !tbaa !96
  %91 = getelementptr inbounds i32, ptr %90, i64 2
  %92 = load i32, ptr %91, align 4, !tbaa !37
  %93 = sext i32 %92 to i64
  %94 = mul i64 %87, %93
  %95 = icmp eq i64 %82, %94
  br i1 %95, label %96, label %105

96:                                               ; preds = %77, %75, %43, %34
  %97 = call noundef i64 @_ZNK2cv4UMat5totalEv(ptr noundef nonnull align 8 dereferenceable(80) %10)
  %98 = call noundef i32 @_ZNK2cv4UMat8channelsEv(ptr noundef nonnull align 8 dereferenceable(80) %10)
  %99 = sext i32 %98 to i64
  %100 = mul i64 %97, %99
  %101 = load i32, ptr %6, align 4, !tbaa !37
  %102 = sext i32 %101 to i64
  %103 = udiv i64 %100, %102
  %104 = trunc i64 %103 to i32
  br label %106

105:                                              ; preds = %77, %68, %53, %50, %46, %19, %14
  br label %106

106:                                              ; preds = %105, %96
  %107 = phi i32 [ %104, %96 ], [ -1, %105 ]
  ret i32 %107
}