; Function Attrs: mustprogress nofree norecurse nosync nounwind willreturn memory(read, inaccessiblemem: none) uwtable
define noundef i32 @_ZNK2cv4UMat11checkVectorEiib(ptr noundef nonnull readonly align 8 captures(none) dereferenceable(80) %0, i32 noundef %1, i32 noundef %2, i1 noundef zeroext %3) local_unnamed_addr #9 align 2 {
  %5 = load i32, ptr %0, align 8, !tbaa !43
  %6 = and i32 %5, 7
  %7 = icmp eq i32 %6, %2
  %8 = icmp slt i32 %2, 1
  %or.cond = or i1 %8, %7
  br i1 %or.cond, label %9, label %.thread

9:                                                ; preds = %4
  %10 = and i32 %5, 16384
  %11 = icmp eq i32 %10, 0
  %brmerge.not = and i1 %3, %11
  br i1 %brmerge.not, label %.thread, label %12

12:                                               ; preds = %9
  %13 = getelementptr inbounds nuw i8, ptr %0, i64 4
  %14 = load i32, ptr %13, align 4, !tbaa !58
  switch i32 %14, label %.thread [
    i32 2, label %15
    i32 3, label %31
  ]

15:                                               ; preds = %12
  %16 = getelementptr inbounds nuw i8, ptr %0, i64 8
  %17 = load i32, ptr %16, align 8, !tbaa !64
  %18 = icmp eq i32 %17, 1
  %19 = getelementptr inbounds nuw i8, ptr %0, i64 12
  %20 = load i32, ptr %19, align 4
  %21 = icmp eq i32 %20, 1
  %or.cond10 = select i1 %18, i1 true, i1 %21
  br i1 %or.cond10, label %22, label %27

22:                                               ; preds = %15
  %23 = lshr i32 %5, 3
  %24 = and i32 %23, 511
  %25 = add nuw nsw i32 %24, 1
  %26 = icmp eq i32 %25, %1
  br i1 %26, label %58, label %27

27:                                               ; preds = %15, %22
  %28 = icmp eq i32 %20, %1
  %29 = and i32 %5, 4088
  %30 = icmp eq i32 %29, 0
  %or.cond15 = and i1 %30, %28
  br i1 %or.cond15, label %58, label %.thread

31:                                               ; preds = %12
  %32 = and i32 %5, 4088
  %33 = icmp eq i32 %32, 0
  br i1 %33, label %34, label %.thread

34:                                               ; preds = %31
  %35 = getelementptr inbounds nuw i8, ptr %0, i64 48
  %36 = load ptr, ptr %35, align 8, !tbaa !61
  %37 = getelementptr inbounds nuw i8, ptr %36, i64 8
  %38 = load i32, ptr %37, align 4, !tbaa !28
  %39 = icmp eq i32 %38, %1
  br i1 %39, label %40, label %.thread

40:                                               ; preds = %34
  %41 = load i32, ptr %36, align 4, !tbaa !28
  %42 = icmp eq i32 %41, 1
  br i1 %42, label %47, label %43

43:                                               ; preds = %40
  %44 = getelementptr inbounds nuw i8, ptr %36, i64 4
  %45 = load i32, ptr %44, align 4, !tbaa !28
  %46 = icmp eq i32 %45, 1
  br i1 %46, label %47, label %.thread

47:                                               ; preds = %43, %40
  br i1 %11, label %48, label %.preheader.i.preheader

48:                                               ; preds = %47
  %49 = getelementptr inbounds nuw i8, ptr %0, i64 56
  %50 = load ptr, ptr %49, align 8, !tbaa !67
  %51 = getelementptr inbounds nuw i8, ptr %50, i64 8
  %52 = load i64, ptr %51, align 8, !tbaa !69
  %53 = getelementptr inbounds nuw i8, ptr %50, i64 16
  %54 = load i64, ptr %53, align 8, !tbaa !69
  %55 = sext i32 %1 to i64
  %56 = mul i64 %54, %55
  %57 = icmp eq i64 %52, %56
  br i1 %57, label %.preheader.i.preheader, label %.thread

.preheader.i.preheader:                           ; preds = %47, %48
  br label %.preheader.i

58:                                               ; preds = %27, %22
  %59 = sext i32 %17 to i64
  %60 = sext i32 %20 to i64
  %61 = mul nsw i64 %60, %59
  br label %_ZNK2cv4UMat5totalEv.exit

.preheader.i:                                     ; preds = %.preheader.i.preheader, %.preheader.i
  %indvars.iv.i = phi i64 [ %indvars.iv.next.i, %.preheader.i ], [ 0, %.preheader.i.preheader ]
  %.068.i = phi i64 [ %65, %.preheader.i ], [ 1, %.preheader.i.preheader ]
  %62 = getelementptr inbounds nuw i32, ptr %36, i64 %indvars.iv.i
  %63 = load i32, ptr %62, align 4, !tbaa !28
  %64 = sext i32 %63 to i64
  %65 = mul i64 %.068.i, %64
  %indvars.iv.next.i = add nuw nsw i64 %indvars.iv.i, 1
  %exitcond.not.i = icmp eq i64 %indvars.iv.next.i, 3
  br i1 %exitcond.not.i, label %_ZNK2cv4UMat5totalEv.exit, label %.preheader.i, !llvm.loop !66

_ZNK2cv4UMat5totalEv.exit:                        ; preds = %.preheader.i, %58
  %.07.i = phi i64 [ %61, %58 ], [ %65, %.preheader.i ]
  %66 = lshr i32 %5, 3
  %67 = and i32 %66, 511
  %68 = add nuw nsw i32 %67, 1
  %69 = zext nneg i32 %68 to i64
  %70 = mul i64 %.07.i, %69
  %71 = sext i32 %1 to i64
  %72 = udiv i64 %70, %71
  %73 = trunc i64 %72 to i32
  br label %.thread

.thread:                                          ; preds = %12, %27, %9, %31, %34, %43, %48, %4, %_ZNK2cv4UMat5totalEv.exit
  %74 = phi i32 [ %73, %_ZNK2cv4UMat5totalEv.exit ], [ -1, %4 ], [ -1, %48 ], [ -1, %43 ], [ -1, %34 ], [ -1, %31 ], [ -1, %9 ], [ -1, %27 ], [ -1, %12 ]
  ret i32 %74
}